; ModuleID = 'source-C-CXX/61/1411.c'
source_filename = "source-C-CXX/61/1411.c"
target datalayout = "e-m:e-p270:32:32-p271:32:32-p272:64:64-i64:64-f80:128-n8:16:32:64-S128"
target triple = "x86_64-pc-linux-gnu"

; Function Attrs: nounwind sspstrong uwtable
define dso_local void @main() local_unnamed_addr #0 {
  %1 = tail call noalias align 16 dereferenceable_or_null(50) i8* @malloc(i64 50) #6
  %2 = tail call i32 (i8*, ...) bitcast (i32 (...)* @gets to i32 (i8*, ...)*)(i8* %1) #6
  %3 = tail call i64 @strlen(i8* noundef nonnull dereferenceable(1) %1) #7
  %4 = trunc i64 %3 to i32
  %5 = icmp sgt i32 %4, 0
  br i1 %5, label %6, label %34

6:                                                ; preds = %0
  %7 = shl i64 %3, 32
  %8 = ashr exact i64 %7, 32
  br label %9

9:                                                ; preds = %6, %30
  %10 = phi i32 [ %32, %30 ], [ 0, %6 ]
  %11 = sext i32 %10 to i64
  %12 = getelementptr inbounds i8, i8* %1, i64 %11
  %13 = load i8, i8* %12, align 1, !tbaa !5
  %14 = icmp eq i8 %13, 32
  br i1 %14, label %15, label %25

15:                                               ; preds = %9
  %16 = tail call i32 @putchar(i32 32)
  br label %17

17:                                               ; preds = %21, %15
  %18 = phi i64 [ %19, %21 ], [ %11, %15 ]
  %19 = add nsw i64 %18, 1
  %20 = icmp slt i64 %19, %8
  br i1 %20, label %21, label %30

21:                                               ; preds = %17
  %22 = getelementptr inbounds i8, i8* %1, i64 %19
  %23 = load i8, i8* %22, align 1, !tbaa !5
  %24 = icmp eq i8 %23, 32
  br i1 %24, label %17, label %28, !llvm.loop !8

25:                                               ; preds = %9
  %26 = sext i8 %13 to i32
  %27 = tail call i32 @putchar(i32 %26)
  br label %30

28:                                               ; preds = %21
  %29 = trunc i64 %18 to i32
  br label %30

30:                                               ; preds = %17, %28, %25
  %31 = phi i32 [ %10, %25 ], [ %29, %28 ], [ %10, %17 ]
  %32 = add nsw i32 %31, 1
  %33 = icmp slt i32 %32, %4
  br i1 %33, label %9, label %34, !llvm.loop !10

34:                                               ; preds = %30, %0
  tail call void @free(i8* %1) #6
  ret void
}

; Function Attrs: inaccessiblememonly mustprogress nofree nounwind willreturn
declare noalias noundef align 16 i8* @malloc(i64 noundef) local_unnamed_addr #1

declare i32 @gets(...) local_unnamed_addr #2

; Function Attrs: argmemonly mustprogress nofree nounwind readonly willreturn
declare i64 @strlen(i8* nocapture) local_unnamed_addr #3

; Function Attrs: inaccessiblemem_or_argmemonly mustprogress nounwind willreturn
declare void @free(i8* nocapture noundef) local_unnamed_addr #4

; Function Attrs: nofree nounwind
declare noundef i32 @putchar(i32 noundef) local_unnamed_addr #5


!llvm.module.flags = !{!0, !1, !2, !3}
!llvm.ident = !{!4}

!0 = !{i32 1, !"wchar_size", i32 4}
!1 = !{i32 7, !"PIC Level", i32 2}
!2 = !{i32 7, !"PIE Level", i32 2}
!3 = !{i32 7, !"uwtable", i32 1}
!4 = !{!"clang version 13.0.0"}
!5 = !{!6, !6, i64 0}
!6 = !{!"omnipotent char", !7, i64 0}
!7 = !{!"Simple C/C++ TBAA"}
!8 = distinct !{!8, !9}
!9 = !{!"llvm.loop.mustprogress"}
!10 = distinct !{!10, !9}
